; Function Attrs: mustprogress uwtable
define void @_ZN2cv6detail14FeatherBlender7prepareENS_5Rect_IiEE(ptr noundef nonnull align 8 dereferenceable(352) %0, i64 %1, i64 %2) unnamed_addr #3 align 2 personality ptr @__gxx_personality_v0 {
  %4 = alloca %"class.cv::_InputArray", align 8
  %5 = alloca %"class.cv::Scalar_", align 8
  %6 = alloca %"class.cv::_InputArray", align 8
  %7 = alloca %"class.cv::Scalar_", align 8
  %8 = alloca %"class.cv::_InputArray", align 8
  %9 = alloca double, align 8
  %10 = getelementptr inbounds nuw i8, ptr %0, i64 8
  tail call void @_ZN2cv4UMat6createENS_5Size_IiEEiNS_14UMatUsageFlagsE(ptr noundef nonnull align 8 dereferenceable(80) %10, i64 %2, i32 noundef 19, i32 noundef 0)
  call void @llvm.lifetime.start.p0(i64 24, ptr nonnull %4) #22
  call void @llvm.lifetime.start.p0(i64 32, ptr nonnull %5) #22
  %11 = getelementptr inbounds nuw i8, ptr %4, i64 16
  call void @llvm.memset.p0.i64(ptr noundef nonnull align 8 dereferenceable(32) %5, i8 0, i64 32, i1 false)
  store i32 -1056833530, ptr %4, align 8, !tbaa !52
  %12 = getelementptr inbounds nuw i8, ptr %4, i64 8
  store ptr %5, ptr %12, align 8, !tbaa !55
  store i64 17179869185, ptr %11, align 8
  %13 = call noundef nonnull align 8 dereferenceable(24) ptr @_ZN2cv7noArrayEv()
  %14 = call noundef nonnull align 8 dereferenceable(80) ptr @_ZN2cv4UMat5setToERKNS_11_InputArrayES3_(ptr noundef nonnull align 8 dereferenceable(80) %10, ptr noundef nonnull align 8 dereferenceable(24) %4, ptr noundef nonnull align 8 dereferenceable(24) %13)
  call void @llvm.lifetime.end.p0(i64 32, ptr nonnull %5) #22
  call void @llvm.lifetime.end.p0(i64 24, ptr nonnull %4) #22
  %15 = getelementptr inbounds nuw i8, ptr %0, i64 88
  call void @_ZN2cv4UMat6createENS_5Size_IiEEiNS_14UMatUsageFlagsE(ptr noundef nonnull align 8 dereferenceable(80) %15, i64 %2, i32 noundef 0, i32 noundef 0)
  call void @llvm.lifetime.start.p0(i64 24, ptr nonnull %6) #22
  call void @llvm.lifetime.start.p0(i64 32, ptr nonnull %7) #22
  %16 = getelementptr inbounds nuw i8, ptr %6, i64 16
  call void @llvm.memset.p0.i64(ptr noundef nonnull align 8 dereferenceable(32) %7, i8 0, i64 32, i1 false)
  store i32 -1056833530, ptr %6, align 8, !tbaa !52
  %17 = getelementptr inbounds nuw i8, ptr %6, i64 8
  store ptr %7, ptr %17, align 8, !tbaa !55
  store i64 17179869185, ptr %16, align 8
  %18 = call noundef nonnull align 8 dereferenceable(24) ptr @_ZN2cv7noArrayEv()
  %19 = call noundef nonnull align 8 dereferenceable(80) ptr @_ZN2cv4UMat5setToERKNS_11_InputArrayES3_(ptr noundef nonnull align 8 dereferenceable(80) %15, ptr noundef nonnull align 8 dereferenceable(24) %6, ptr noundef nonnull align 8 dereferenceable(24) %18)
  call void @llvm.lifetime.end.p0(i64 32, ptr nonnull %7) #22
  call void @llvm.lifetime.end.p0(i64 24, ptr nonnull %6) #22
  %20 = getelementptr inbounds nuw i8, ptr %0, i64 168
  store i64 %1, ptr %20, align 8
  %.sroa.2.0..sroa_idx.i = getelementptr inbounds nuw i8, ptr %0, i64 176
  store i64 %2, ptr %.sroa.2.0..sroa_idx.i, align 8
  %21 = getelementptr inbounds nuw i8, ptr %0, i64 272
  call void @_ZN2cv4UMat6createENS_5Size_IiEEiNS_14UMatUsageFlagsE(ptr noundef nonnull align 8 dereferenceable(80) %21, i64 %2, i32 noundef 5, i32 noundef 0)
  call void @llvm.lifetime.start.p0(i64 24, ptr nonnull %8) #22
  call void @llvm.lifetime.start.p0(i64 8, ptr nonnull %9) #22
  store double 0.000000e+00, ptr %9, align 8, !tbaa !81
  %22 = getelementptr inbounds nuw i8, ptr %8, i64 16
  store i32 -1056833530, ptr %8, align 8, !tbaa !52
  %23 = getelementptr inbounds nuw i8, ptr %8, i64 8
  store ptr %9, ptr %23, align 8, !tbaa !55
  store i64 4294967297, ptr %22, align 8
  %24 = call noundef nonnull align 8 dereferenceable(24) ptr @_ZN2cv7noArrayEv()
  %25 = call noundef nonnull align 8 dereferenceable(80) ptr @_ZN2cv4UMat5setToERKNS_11_InputArrayES3_(ptr noundef nonnull align 8 dereferenceable(80) %21, ptr noundef nonnull align 8 dereferenceable(24) %8, ptr noundef nonnull align 8 dereferenceable(24) %24)
  call void @llvm.lifetime.end.p0(i64 8, ptr nonnull %9) #22
  call void @llvm.lifetime.end.p0(i64 24, ptr nonnull %8) #22
  ret void
}